target datalayout = "e-m:e-p270:32:32-p271:32:32-p272:64:64-i64:64-i128:128-f80:128-n8:16:32:64-S128"
target triple = "x86_64-pc-linux-gnu"

%struct._packet_info = type { ptr, ptr, i32, i32, %struct.nstime_t, %struct.nstime_t, %struct.nstime_t, i8, ptr, ptr, ptr, ptr, %struct._address, %struct._address, %struct._address, %struct._address, %struct._address, %struct._address, i32, ptr, i8, [3 x i8], %struct.anon, i32, i32, i32, i32, ptr, i8, ptr, ptr, i16, i16, i32, i32, i16, i32, i32, ptr, ptr, ptr, i8, i8, i16, i16, i16, i32, i16, i16, ptr, ptr, ptr, ptr, ptr, i32, i32 }
%struct.nstime_t = type { i64, i32 }
%struct._address = type { i32, i32, ptr, ptr }
%struct.anon = type { i8, [3 x i8] }

@hf_mip6_lmaa_opt_code = internal global i32 0, align 4
@hf_mip6_lmaa_reserved = internal global i32 0, align 4
@hf_mip6_lmaa_ipv4 = internal global i32 0, align 4
@hf_mip6_lmaa_ipv6 = internal global i32 0, align 4
@ett_mip6_opt_lmaa = internal global i32 0, align 4
@proto_mip6_option_lmaa = internal global i32 0, align 4
@.str.755 = private unnamed_addr constant [5 x i8] c": %s\00", align 1

; Function Attrs: null_pointer_is_valid sspstrong uwtable
define internal i32 @dissect_pmip6_opt_lmaa(ptr noundef %0, ptr noundef %1, ptr noundef %2, ptr noundef %3) #0 {
  %5 = alloca ptr, align 8
  %6 = alloca ptr, align 8
  %7 = alloca ptr, align 8
  %8 = alloca ptr, align 8
  %9 = alloca ptr, align 8
  %10 = alloca ptr, align 8
  %11 = alloca i32, align 4
  %12 = alloca i32, align 4
  %13 = alloca i8, align 1
  store ptr %0, ptr %5, align 8
  store ptr %1, ptr %6, align 8
  store ptr %2, ptr %7, align 8
  store ptr %3, ptr %8, align 8
  call void @llvm.lifetime.start.p0(i64 8, ptr %9) #6
  call void @llvm.lifetime.start.p0(i64 8, ptr %10) #6
  call void @llvm.lifetime.start.p0(i64 4, ptr %11) #6
  %14 = load ptr, ptr %5, align 8
  %15 = call i32 @tvb_reported_length(ptr noundef %14)
  %16 = sub i32 %15, 2
  store i32 %16, ptr %11, align 4
  call void @llvm.lifetime.start.p0(i64 4, ptr %12) #6
  store i32 2, ptr %12, align 4
  call void @llvm.lifetime.start.p0(i64 1, ptr %13) #6
  %17 = load ptr, ptr %7, align 8
  %18 = load ptr, ptr %6, align 8
  %19 = load ptr, ptr %5, align 8
  %20 = load i32, ptr @proto_mip6_option_lmaa, align 4
  %21 = load i32, ptr @ett_mip6_opt_lmaa, align 4
  %22 = load i32, ptr %11, align 4
  %23 = call ptr @mip6_var_option_header(ptr noundef %17, ptr noundef %18, ptr noundef %19, i32 noundef %20, i32 noundef %21, ptr noundef %10, i32 noundef %22, i32 noundef 6)
  store ptr %23, ptr %9, align 8
  %24 = load ptr, ptr %5, align 8
  %25 = load i32, ptr %12, align 4
  %26 = call zeroext i8 @tvb_get_uint8(ptr noundef %24, i32 noundef %25)
  store i8 %26, ptr %13, align 1
  %27 = load ptr, ptr %9, align 8
  %28 = load i32, ptr @hf_mip6_lmaa_opt_code, align 4
  %29 = load ptr, ptr %5, align 8
  %30 = load i32, ptr %12, align 4
  %31 = call ptr @proto_tree_add_item(ptr noundef %27, i32 noundef %28, ptr noundef %29, i32 noundef %30, i32 noundef 1, i32 noundef 0)
  %32 = load i32, ptr %12, align 4
  %33 = add i32 %32, 1
  store i32 %33, ptr %12, align 4
  %34 = load ptr, ptr %9, align 8
  %35 = load i32, ptr @hf_mip6_lmaa_reserved, align 4
  %36 = load ptr, ptr %5, align 8
  %37 = load i32, ptr %12, align 4
  %38 = call ptr @proto_tree_add_item(ptr noundef %34, i32 noundef %35, ptr noundef %36, i32 noundef %37, i32 noundef 1, i32 noundef 0)
  %39 = load i32, ptr %12, align 4
  %40 = add i32 %39, 1
  store i32 %40, ptr %12, align 4
  %41 = load i8, ptr %13, align 1
  %42 = zext i8 %41 to i32
  %43 = icmp eq i32 %42, 1
  br i1 %43, label %44, label %57

44:                                               ; preds = %4
  %45 = load ptr, ptr %9, align 8
  %46 = load i32, ptr @hf_mip6_lmaa_ipv6, align 4
  %47 = load ptr, ptr %5, align 8
  %48 = load i32, ptr %12, align 4
  %49 = call ptr @proto_tree_add_item(ptr noundef %45, i32 noundef %46, ptr noundef %47, i32 noundef %48, i32 noundef 16, i32 noundef 0)
  %50 = load ptr, ptr %10, align 8
  %51 = load ptr, ptr %6, align 8
  %52 = getelementptr inbounds nuw %struct._packet_info, ptr %51, i32 0, i32 51
  %53 = load ptr, ptr %52, align 8
  %54 = load ptr, ptr %5, align 8
  %55 = load i32, ptr %12, align 4
  %56 = call ptr @tvb_address_to_str(ptr noundef %53, ptr noundef %54, i32 noundef 3, i32 noundef %55)
  call void (ptr, ptr, ...) @proto_item_append_text(ptr noundef %50, ptr noundef @.str.755, ptr noundef %56)
  br label %75

57:                                               ; preds = %4
  %58 = load i8, ptr %13, align 1
  %59 = zext i8 %58 to i32
  %60 = icmp eq i32 %59, 2
  br i1 %60, label %61, label %74

61:                                               ; preds = %57
  %62 = load ptr, ptr %9, align 8
  %63 = load i32, ptr @hf_mip6_lmaa_ipv4, align 4
  %64 = load ptr, ptr %5, align 8
  %65 = load i32, ptr %12, align 4
  %66 = call ptr @proto_tree_add_item(ptr noundef %62, i32 noundef %63, ptr noundef %64, i32 noundef %65, i32 noundef 4, i32 noundef 0)
  %67 = load ptr, ptr %10, align 8
  %68 = load ptr, ptr %6, align 8
  %69 = getelementptr inbounds nuw %struct._packet_info, ptr %68, i32 0, i32 51
  %70 = load ptr, ptr %69, align 8
  %71 = load ptr, ptr %5, align 8
  %72 = load i32, ptr %12, align 4
  %73 = call ptr @tvb_address_to_str(ptr noundef %70, ptr noundef %71, i32 noundef 2, i32 noundef %72)
  call void (ptr, ptr, ...) @proto_item_append_text(ptr noundef %67, ptr noundef @.str.755, ptr noundef %73)
  br label %74

74:                                               ; preds = %61, %57
  br label %75

75:                                               ; preds = %74, %44
  %76 = load ptr, ptr %5, align 8
  %77 = call i32 @tvb_captured_length(ptr noundef %76)
  call void @llvm.lifetime.end.p0(i64 1, ptr %13) #6
  call void @llvm.lifetime.end.p0(i64 4, ptr %12) #6
  call void @llvm.lifetime.end.p0(i64 4, ptr %11) #6
  call void @llvm.lifetime.end.p0(i64 8, ptr %10) #6
  call void @llvm.lifetime.end.p0(i64 8, ptr %9) #6
  ret i32 %77
}