; Function Attrs: null_pointer_is_valid sspstrong uwtable
define internal i32 @dissect_pmip6_opt_lmaa(ptr noundef %0, ptr noundef %1, ptr noundef %2, ptr readnone captures(none) %3) #0 {
  %5 = alloca ptr, align 8
  call void @llvm.lifetime.start.p0(i64 8, ptr nonnull %5) #5
  %6 = tail call i32 @tvb_reported_length(ptr noundef %0)
  %7 = add i32 %6, -2
  %8 = load i32, ptr @proto_mip6_option_lmaa, align 4
  %9 = load i32, ptr @ett_mip6_opt_lmaa, align 4
  %10 = call fastcc ptr @mip6_var_option_header(ptr noundef %2, ptr noundef %1, ptr noundef %0, i32 noundef %8, i32 noundef %9, ptr noundef nonnull %5, i32 noundef %7, i32 noundef 6)
  %11 = tail call zeroext i8 @tvb_get_uint8(ptr noundef %0, i32 noundef 2)
  %12 = load i32, ptr @hf_mip6_lmaa_opt_code, align 4
  %13 = tail call ptr @proto_tree_add_item(ptr noundef %10, i32 noundef %12, ptr noundef %0, i32 noundef 2, i32 noundef 1, i32 noundef 0)
  %14 = load i32, ptr @hf_mip6_lmaa_reserved, align 4
  %15 = tail call ptr @proto_tree_add_item(ptr noundef %10, i32 noundef %14, ptr noundef %0, i32 noundef 3, i32 noundef 1, i32 noundef 0)
  switch i8 %11, label %23 [
    i8 1, label %.sink.split
    i8 2, label %16
  ]

16:                                               ; preds = %4
  br label %.sink.split

.sink.split:                                      ; preds = %4, %16
  %hf_mip6_lmaa_ipv4.sink = phi ptr [ @hf_mip6_lmaa_ipv4, %16 ], [ @hf_mip6_lmaa_ipv6, %4 ]
  %.sink33 = phi i32 [ 4, %16 ], [ 16, %4 ]
  %.sink31 = phi i32 [ 2, %16 ], [ 3, %4 ]
  %17 = load i32, ptr %hf_mip6_lmaa_ipv4.sink, align 4
  %18 = tail call ptr @proto_tree_add_item(ptr noundef %10, i32 noundef %17, ptr noundef %0, i32 noundef 4, i32 noundef %.sink33, i32 noundef 0)
  %19 = load ptr, ptr %5, align 8
  %20 = getelementptr inbounds nuw i8, ptr %1, i64 408
  %21 = load ptr, ptr %20, align 8
  %22 = tail call ptr @tvb_address_to_str(ptr noundef %21, ptr noundef %0, i32 noundef %.sink31, i32 noundef 4)
  tail call void (ptr, ptr, ...) @proto_item_append_text(ptr noundef %19, ptr noundef nonnull @.str.755, ptr noundef %22)
  br label %23

23:                                               ; preds = %.sink.split, %4
  %24 = tail call i32 @tvb_captured_length(ptr noundef %0)
  call void @llvm.lifetime.end.p0(i64 8, ptr nonnull %5) #5
  ret i32 %24
}